target datalayout = "e-m:e-p270:32:32-p271:32:32-p272:64:64-i64:64-i128:128-f80:128-n8:16:32:64-S128"
target triple = "x86_64-pc-linux-gnu"

%struct.pg_prng_state = type { i64, i64 }
%struct.PGShmemHeader = type { i32, i32, i64, i64, i32, ptr, i64, i64 }
%struct.dsm_control_header = type { i32, i32, i32, [0 x %struct.dsm_control_item] }
%struct.dsm_control_item = type { i32, i32, i64, i64, ptr, i8 }
%struct.dirent = type { i64, i64, i16, i8, [256 x i8] }

@dynamic_shared_memory_type = external global i32, align 4
@MaxBackends = external global i32, align 4
@.str = private unnamed_addr constant [54 x i8] c"dynamic shared memory system will support %u segments\00", align 1
@.str.1 = private unnamed_addr constant [6 x i8] c"dsm.c\00", align 1
@__func__.dsm_postmaster_startup = private unnamed_addr constant [23 x i8] c"dsm_postmaster_startup\00", align 1
@pg_global_prng_state = external global %struct.pg_prng_state, align 8
@dsm_control_handle = internal global i32 0, align 4
@dsm_control_impl_private = internal global ptr null, align 8
@dsm_control_mapped_size = internal global i64 0, align 8
@dsm_control = internal global ptr null, align 8
@.str.2 = private unnamed_addr constant [61 x i8] c"created dynamic shared memory control segment %u (%zu bytes)\00", align 1
@.str.11 = private unnamed_addr constant [12 x i8] c"pg_dynshmem\00", align 1
@.str.12 = private unnamed_addr constant [6 x i8] c"mmap.\00", align 1
@.str.13 = private unnamed_addr constant [15 x i8] c"pg_dynshmem/%s\00", align 1
@.str.14 = private unnamed_addr constant [19 x i8] c"removing file \22%s\22\00", align 1
@__func__.dsm_cleanup_for_mmap = private unnamed_addr constant [21 x i8] c"dsm_cleanup_for_mmap\00", align 1
@.str.15 = private unnamed_addr constant [31 x i8] c"could not remove file \22%s\22: %m\00", align 1

; Function Attrs: inlinehint nounwind uwtable
define internal i64 @PointerGetDatum(ptr noundef %0) #4 {
  %2 = alloca ptr, align 8
  store ptr %0, ptr %2, align 8
  %3 = load ptr, ptr %2, align 8
  %4 = ptrtoint ptr %3 to i64
  ret i64 %4
}

; Function Attrs: nounwind uwtable
define internal i64 @dsm_control_bytes_needed(i32 noundef %0) #0 {
  %2 = alloca i32, align 4
  store i32 %0, ptr %2, align 4
  %3 = load i32, ptr %2, align 4
  %4 = zext i32 %3 to i64
  %5 = mul i64 40, %4
  %6 = add i64 16, %5
  ret i64 %6
}

; Function Attrs: nounwind uwtable
define internal void @dsm_cleanup_for_mmap() #0 {
  %1 = alloca ptr, align 8
  %2 = alloca ptr, align 8
  %3 = alloca [1036 x i8], align 16
  call void @llvm.lifetime.start.p0(i64 8, ptr %1) #8
  call void @llvm.lifetime.start.p0(i64 8, ptr %2) #8
  %4 = call ptr @AllocateDir(ptr noundef @.str.11)
  store ptr %4, ptr %1, align 8
  br label %5

5:                                                ; preds = %49, %0
  %6 = load ptr, ptr %1, align 8
  %7 = call ptr @ReadDir(ptr noundef %6, ptr noundef @.str.11)
  store ptr %7, ptr %2, align 8
  %8 = icmp ne ptr %7, null
  br i1 %8, label %9, label %50

9:                                                ; preds = %5
  %10 = load ptr, ptr %2, align 8
  %11 = getelementptr inbounds nuw %struct.dirent, ptr %10, i32 0, i32 4
  %12 = getelementptr inbounds [256 x i8], ptr %11, i64 0, i64 0
  %13 = call i32 @strncmp(ptr noundef %12, ptr noundef @.str.12, i64 noundef 5) #10
  %14 = icmp eq i32 %13, 0
  br i1 %14, label %15, label %49

15:                                               ; preds = %9
  call void @llvm.lifetime.start.p0(i64 1036, ptr %3) #8
  %16 = getelementptr inbounds [1036 x i8], ptr %3, i64 0, i64 0
  %17 = load ptr, ptr %2, align 8
  %18 = getelementptr inbounds nuw %struct.dirent, ptr %17, i32 0, i32 4
  %19 = getelementptr inbounds [256 x i8], ptr %18, i64 0, i64 0
  %20 = call i32 (ptr, i64, ptr, ...) @pg_snprintf(ptr noundef %16, i64 noundef 1036, ptr noundef @.str.13, ptr noundef %19)
  br label %21

21:                                               ; preds = %15
  br i1 false, label %22, label %24

22:                                               ; preds = %21
  %23 = call zeroext i1 @errstart_cold(i32 noundef 13, ptr noundef null) #9
  br i1 %23, label %26, label %29

24:                                               ; preds = %21
  %25 = call zeroext i1 @errstart(i32 noundef 13, ptr noundef null)
  br i1 %25, label %26, label %29

26:                                               ; preds = %24, %22
  %27 = getelementptr inbounds [1036 x i8], ptr %3, i64 0, i64 0
  %28 = call i32 (ptr, ...) @errmsg_internal(ptr noundef @.str.14, ptr noundef %27)
  call void @errfinish(ptr noundef @.str.1, i32 noundef 337, ptr noundef @__func__.dsm_cleanup_for_mmap)
  br label %29

29:                                               ; preds = %26, %24, %22
  br label %30

30:                                               ; preds = %29
  br label %31

31:                                               ; preds = %30
  %32 = getelementptr inbounds [1036 x i8], ptr %3, i64 0, i64 0
  %33 = call i32 @unlink(ptr noundef %32) #8
  %34 = icmp ne i32 %33, 0
  br i1 %34, label %35, label %48

35:                                               ; preds = %31
  br label %36

36:                                               ; preds = %35
  br i1 true, label %37, label %39

37:                                               ; preds = %36
  %38 = call zeroext i1 @errstart_cold(i32 noundef 21, ptr noundef null) #9
  br i1 %38, label %41, label %45

39:                                               ; preds = %36
  %40 = call zeroext i1 @errstart(i32 noundef 21, ptr noundef null)
  br i1 %40, label %41, label %45

41:                                               ; preds = %39, %37
  %42 = call i32 @errcode_for_file_access()
  %43 = getelementptr inbounds [1036 x i8], ptr %3, i64 0, i64 0
  %44 = call i32 (ptr, ...) @errmsg(ptr noundef @.str.15, ptr noundef %43)
  call void @errfinish(ptr noundef @.str.1, i32 noundef 343, ptr noundef @__func__.dsm_cleanup_for_mmap)
  br label %45

45:                                               ; preds = %41, %39, %37
  unreachable

46:                                               ; No predecessors!
  br label %47

47:                                               ; preds = %46
  br label %48

48:                                               ; preds = %47, %31
  call void @llvm.lifetime.end.p0(i64 1036, ptr %3) #8
  br label %49

49:                                               ; preds = %48, %9
  br label %5, !llvm.loop !4

50:                                               ; preds = %5
  %51 = load ptr, ptr %1, align 8
  %52 = call i32 @FreeDir(ptr noundef %51)
  call void @llvm.lifetime.end.p0(i64 8, ptr %2) #8
  call void @llvm.lifetime.end.p0(i64 8, ptr %1) #8
  ret void
}

; Function Attrs: nounwind uwtable
define dso_local void @dsm_postmaster_startup(ptr noundef %0) #0 {
  %2 = alloca ptr, align 8
  %3 = alloca ptr, align 8
  %4 = alloca i32, align 4
  %5 = alloca i64, align 8
  store ptr %0, ptr %2, align 8
  call void @llvm.lifetime.start.p0(i64 8, ptr %3) #8
  store ptr null, ptr %3, align 8
  call void @llvm.lifetime.start.p0(i64 4, ptr %4) #8
  call void @llvm.lifetime.start.p0(i64 8, ptr %5) #8
  %6 = load i32, ptr @dynamic_shared_memory_type, align 4
  %7 = icmp eq i32 %6, 4
  br i1 %7, label %8, label %9

8:                                                ; preds = %1
  call void @dsm_cleanup_for_mmap()
  br label %9

9:                                                ; preds = %8, %1
  %10 = load i32, ptr @MaxBackends, align 4
  %11 = mul i32 5, %10
  %12 = add i32 64, %11
  store i32 %12, ptr %4, align 4
  br label %13

13:                                               ; preds = %9
  br i1 false, label %14, label %16

14:                                               ; preds = %13
  %15 = call zeroext i1 @errstart_cold(i32 noundef 13, ptr noundef null) #9
  br i1 %15, label %18, label %21

16:                                               ; preds = %13
  %17 = call zeroext i1 @errstart(i32 noundef 13, ptr noundef null)
  br i1 %17, label %18, label %21

18:                                               ; preds = %16, %14
  %19 = load i32, ptr %4, align 4
  %20 = call i32 (ptr, ...) @errmsg_internal(ptr noundef @.str, i32 noundef %19)
  call void @errfinish(ptr noundef @.str.1, i32 noundef 198, ptr noundef @__func__.dsm_postmaster_startup)
  br label %21

21:                                               ; preds = %18, %16, %14
  br label %22

22:                                               ; preds = %21
  br label %23

23:                                               ; preds = %22
  %24 = load i32, ptr %4, align 4
  %25 = call i64 @dsm_control_bytes_needed(i32 noundef %24)
  store i64 %25, ptr %5, align 8
  br label %26

26:                                               ; preds = %37, %31, %23
  %27 = call i32 @pg_prng_uint32(ptr noundef @pg_global_prng_state)
  %28 = shl i32 %27, 1
  store i32 %28, ptr @dsm_control_handle, align 4
  %29 = load i32, ptr @dsm_control_handle, align 4
  %30 = icmp eq i32 %29, 0
  br i1 %30, label %31, label %32

31:                                               ; preds = %26
  br label %26

32:                                               ; preds = %26
  %33 = load i32, ptr @dsm_control_handle, align 4
  %34 = load i64, ptr %5, align 8
  %35 = call zeroext i1 @dsm_impl_op(i32 noundef 0, i32 noundef %33, i64 noundef %34, ptr noundef @dsm_control_impl_private, ptr noundef %3, ptr noundef @dsm_control_mapped_size, i32 noundef 21)
  br i1 %35, label %36, label %37

36:                                               ; preds = %32
  br label %38

37:                                               ; preds = %32
  br label %26

38:                                               ; preds = %36
  %39 = load ptr, ptr %3, align 8
  store ptr %39, ptr @dsm_control, align 8
  %40 = load ptr, ptr %2, align 8
  %41 = call i64 @PointerGetDatum(ptr noundef %40)
  call void @on_shmem_exit(ptr noundef @dsm_postmaster_shutdown, i64 noundef %41)
  br label %42

42:                                               ; preds = %38
  br i1 false, label %43, label %45

43:                                               ; preds = %42
  %44 = call zeroext i1 @errstart_cold(i32 noundef 13, ptr noundef null) #9
  br i1 %44, label %47, label %51

45:                                               ; preds = %42
  %46 = call zeroext i1 @errstart(i32 noundef 13, ptr noundef null)
  br i1 %46, label %47, label %51

47:                                               ; preds = %45, %43
  %48 = load i32, ptr @dsm_control_handle, align 4
  %49 = load i64, ptr %5, align 8
  %50 = call i32 (ptr, ...) @errmsg_internal(ptr noundef @.str.2, i32 noundef %48, i64 noundef %49)
  call void @errfinish(ptr noundef @.str.1, i32 noundef 223, ptr noundef @__func__.dsm_postmaster_startup)
  br label %51

51:                                               ; preds = %47, %45, %43
  br label %52

52:                                               ; preds = %51
  br label %53

53:                                               ; preds = %52
  %54 = load i32, ptr @dsm_control_handle, align 4
  %55 = load ptr, ptr %2, align 8
  %56 = getelementptr inbounds nuw %struct.PGShmemHeader, ptr %55, i32 0, i32 4
  store i32 %54, ptr %56, align 8
  %57 = load ptr, ptr @dsm_control, align 8
  %58 = getelementptr inbounds nuw %struct.dsm_control_header, ptr %57, i32 0, i32 0
  store i32 -1706017486, ptr %58, align 8
  %59 = load ptr, ptr @dsm_control, align 8
  %60 = getelementptr inbounds nuw %struct.dsm_control_header, ptr %59, i32 0, i32 1
  store i32 0, ptr %60, align 4
  %61 = load i32, ptr %4, align 4
  %62 = load ptr, ptr @dsm_control, align 8
  %63 = getelementptr inbounds nuw %struct.dsm_control_header, ptr %62, i32 0, i32 2
  store i32 %61, ptr %63, align 8
  call void @llvm.lifetime.end.p0(i64 8, ptr %5) #8
  call void @llvm.lifetime.end.p0(i64 4, ptr %4) #8
  call void @llvm.lifetime.end.p0(i64 8, ptr %3) #8
  ret void
}