; Function Attrs: nounwind uwtable
define dso_local void @dsm_postmaster_startup(ptr noundef %0) local_unnamed_addr #0 {
  %2 = alloca [1036 x i8], align 16
  %3 = alloca ptr, align 8
  call void @llvm.lifetime.start.p0(i64 8, ptr nonnull %3) #12
  store ptr null, ptr %3, align 8
  %4 = load i32, ptr @dynamic_shared_memory_type, align 4
  %5 = icmp eq i32 %4, 4
  br i1 %5, label %6, label %28

6:                                                ; preds = %1
  %7 = tail call ptr @AllocateDir(ptr noundef nonnull @.str.11) #12
  %8 = tail call ptr @ReadDir(ptr noundef %7, ptr noundef nonnull @.str.11) #12
  %.not5.i = icmp eq ptr %8, null
  br i1 %.not5.i, label %dsm_cleanup_for_mmap.exit, label %.lr.ph.i

.lr.ph.i:                                         ; preds = %6, %25
  %9 = phi ptr [ %26, %25 ], [ %8, %6 ]
  %10 = getelementptr inbounds nuw i8, ptr %9, i64 19
  %11 = call i32 @strncmp(ptr noundef nonnull dereferenceable(1) %10, ptr noundef nonnull dereferenceable(6) @.str.12, i64 noundef 5) #13
  %12 = icmp eq i32 %11, 0
  br i1 %12, label %13, label %25

13:                                               ; preds = %.lr.ph.i
  call void @llvm.lifetime.start.p0(i64 1036, ptr nonnull %2) #12
  %14 = call i32 (ptr, i64, ptr, ...) @pg_snprintf(ptr noundef nonnull %2, i64 noundef 1036, ptr noundef nonnull @.str.13, ptr noundef nonnull %10) #12
  %15 = call zeroext i1 @errstart(i32 noundef 13, ptr noundef null) #12
  br i1 %15, label %16, label %18

16:                                               ; preds = %13
  %17 = call i32 (ptr, ...) @errmsg_internal(ptr noundef nonnull @.str.14, ptr noundef nonnull %2) #12
  call void @errfinish(ptr noundef nonnull @.str.1, i32 noundef 337, ptr noundef nonnull @__func__.dsm_cleanup_for_mmap) #12
  br label %18

18:                                               ; preds = %16, %13
  %19 = call i32 @unlink(ptr noundef nonnull %2) #12
  %.not4.i = icmp eq i32 %19, 0
  br i1 %.not4.i, label %24, label %20

20:                                               ; preds = %18
  %21 = call zeroext i1 @errstart_cold(i32 noundef 21, ptr noundef null) #14
  call void @llvm.assume(i1 %21)
  %22 = call i32 @errcode_for_file_access() #12
  %23 = call i32 (ptr, ...) @errmsg(ptr noundef nonnull @.str.15, ptr noundef nonnull %2) #12
  call void @errfinish(ptr noundef nonnull @.str.1, i32 noundef 343, ptr noundef nonnull @__func__.dsm_cleanup_for_mmap) #12
  unreachable

24:                                               ; preds = %18
  call void @llvm.lifetime.end.p0(i64 1036, ptr nonnull %2) #12
  br label %25

25:                                               ; preds = %24, %.lr.ph.i
  %26 = call ptr @ReadDir(ptr noundef %7, ptr noundef nonnull @.str.11) #12
  %.not.i = icmp eq ptr %26, null
  br i1 %.not.i, label %dsm_cleanup_for_mmap.exit, label %.lr.ph.i, !llvm.loop !4

dsm_cleanup_for_mmap.exit:                        ; preds = %25, %6
  %27 = call i32 @FreeDir(ptr noundef %7) #12
  br label %28

28:                                               ; preds = %dsm_cleanup_for_mmap.exit, %1
  %29 = load i32, ptr @MaxBackends, align 4
  %30 = mul i32 %29, 5
  %31 = add i32 %30, 64
  %32 = call zeroext i1 @errstart(i32 noundef 13, ptr noundef null) #12
  br i1 %32, label %33, label %35

33:                                               ; preds = %28
  %34 = call i32 (ptr, ...) @errmsg_internal(ptr noundef nonnull @.str, i32 noundef %31) #12
  call void @errfinish(ptr noundef nonnull @.str.1, i32 noundef 198, ptr noundef nonnull @__func__.dsm_postmaster_startup) #12
  br label %35

35:                                               ; preds = %33, %28
  %36 = zext i32 %31 to i64
  %37 = mul nuw nsw i64 %36, 40
  %38 = add nuw nsw i64 %37, 16
  br label %.backedge

.backedge:                                        ; preds = %.backedge.backedge, %35
  %39 = call i32 @pg_prng_uint32(ptr noundef nonnull @pg_global_prng_state) #12
  %40 = shl i32 %39, 1
  store i32 %40, ptr @dsm_control_handle, align 4
  %41 = icmp eq i32 %40, 0
  br i1 %41, label %.backedge.backedge, label %42

.backedge.backedge:                               ; preds = %.backedge, %42
  br label %.backedge

42:                                               ; preds = %.backedge
  %43 = call zeroext i1 @dsm_impl_op(i32 noundef 0, i32 noundef %40, i64 noundef %38, ptr noundef nonnull @dsm_control_impl_private, ptr noundef nonnull %3, ptr noundef nonnull @dsm_control_mapped_size, i32 noundef 21) #12
  br i1 %43, label %44, label %.backedge.backedge

44:                                               ; preds = %42
  %45 = load ptr, ptr %3, align 8
  store ptr %45, ptr @dsm_control, align 8
  %46 = ptrtoint ptr %0 to i64
  call void @on_shmem_exit(ptr noundef nonnull @dsm_postmaster_shutdown, i64 noundef %46) #12
  %47 = call zeroext i1 @errstart(i32 noundef 13, ptr noundef null) #12
  br i1 %47, label %48, label %51

48:                                               ; preds = %44
  %49 = load i32, ptr @dsm_control_handle, align 4
  %50 = call i32 (ptr, ...) @errmsg_internal(ptr noundef nonnull @.str.2, i32 noundef %49, i64 noundef %38) #12
  call void @errfinish(ptr noundef nonnull @.str.1, i32 noundef 223, ptr noundef nonnull @__func__.dsm_postmaster_startup) #12
  br label %51

51:                                               ; preds = %48, %44
  %52 = load i32, ptr @dsm_control_handle, align 4
  %53 = getelementptr inbounds nuw i8, ptr %0, i64 24
  store i32 %52, ptr %53, align 8
  %54 = load ptr, ptr @dsm_control, align 8
  store i32 -1706017486, ptr %54, align 8
  %55 = getelementptr inbounds nuw i8, ptr %54, i64 4
  store i32 0, ptr %55, align 4
  %56 = getelementptr inbounds nuw i8, ptr %54, i64 8
  store i32 %31, ptr %56, align 8
  call void @llvm.lifetime.end.p0(i64 8, ptr nonnull %3) #12
  ret void
}